target datalayout = "e-m:e-p270:32:32-p271:32:32-p272:64:64-i64:64-i128:128-f80:128-n8:16:32:64-S128"
target triple = "x86_64-pc-linux-gnu"

%"struct.duckdb_yyjson::yyjson_alc" = type { ptr, ptr, ptr, ptr }
%"struct.duckdb_yyjson::yyjson_str_pool" = type { ptr, ptr, i64, i64, ptr }
%"struct.duckdb_yyjson::yyjson_val_pool" = type { ptr, ptr, i64, i64, ptr }
%"struct.duckdb_yyjson::yyjson_mut_doc" = type { ptr, %"struct.duckdb_yyjson::yyjson_alc", %"struct.duckdb_yyjson::yyjson_str_pool", %"struct.duckdb_yyjson::yyjson_val_pool" }

@_ZN13duckdb_yyjsonL18YYJSON_DEFAULT_ALCE = internal constant %"struct.duckdb_yyjson::yyjson_alc" { ptr @_ZN13duckdb_yyjsonL14default_mallocEPvm, ptr @_ZN13duckdb_yyjsonL15default_reallocEPvS0_mm, ptr @_ZN13duckdb_yyjsonL12default_freeEPvS0_, ptr null }, align 8

; Function Attrs: mustprogress uwtable
define noundef ptr @_ZN13duckdb_yyjson18yyjson_mut_doc_newEPKNS_10yyjson_alcE(ptr noundef %0) #1 {
  %2 = alloca ptr, align 8
  %3 = alloca ptr, align 8
  %4 = alloca ptr, align 8
  %5 = alloca i32, align 4
  store ptr %0, ptr %3, align 8, !tbaa !3
  call void @llvm.lifetime.start.p0(i64 8, ptr %4) #15
  %6 = load ptr, ptr %3, align 8, !tbaa !3
  %7 = icmp ne ptr %6, null
  br i1 %7, label %9, label %8

8:                                                ; preds = %1
  store ptr @_ZN13duckdb_yyjsonL18YYJSON_DEFAULT_ALCE, ptr %3, align 8, !tbaa !3
  br label %9

9:                                                ; preds = %8, %1
  %10 = load ptr, ptr %3, align 8, !tbaa !3
  %11 = getelementptr inbounds nuw %"struct.duckdb_yyjson::yyjson_alc", ptr %10, i32 0, i32 0
  %12 = load ptr, ptr %11, align 8, !tbaa !22
  %13 = load ptr, ptr %3, align 8, !tbaa !3
  %14 = getelementptr inbounds nuw %"struct.duckdb_yyjson::yyjson_alc", ptr %13, i32 0, i32 3
  %15 = load ptr, ptr %14, align 8, !tbaa !26
  %16 = call noundef ptr %12(ptr noundef %15, i64 noundef 120)
  store ptr %16, ptr %4, align 8, !tbaa !71
  %17 = load ptr, ptr %4, align 8, !tbaa !71
  %18 = icmp ne ptr %17, null
  br i1 %18, label %20, label %19

19:                                               ; preds = %9
  store ptr null, ptr %2, align 8
  store i32 1, ptr %5, align 4
  br label %38

20:                                               ; preds = %9
  %21 = load ptr, ptr %4, align 8, !tbaa !71
  call void @llvm.memset.p0.i64(ptr align 8 %21, i8 0, i64 120, i1 false)
  %22 = load ptr, ptr %3, align 8, !tbaa !3
  %23 = load ptr, ptr %4, align 8, !tbaa !71
  %24 = getelementptr inbounds nuw %"struct.duckdb_yyjson::yyjson_mut_doc", ptr %23, i32 0, i32 1
  call void @llvm.memcpy.p0.p0.i64(ptr align 8 %24, ptr align 8 %22, i64 32, i1 false), !tbaa.struct !11
  %25 = load ptr, ptr %4, align 8, !tbaa !71
  %26 = getelementptr inbounds nuw %"struct.duckdb_yyjson::yyjson_mut_doc", ptr %25, i32 0, i32 2
  %27 = getelementptr inbounds nuw %"struct.duckdb_yyjson::yyjson_str_pool", ptr %26, i32 0, i32 2
  store i64 256, ptr %27, align 8, !tbaa !73
  %28 = load ptr, ptr %4, align 8, !tbaa !71
  %29 = getelementptr inbounds nuw %"struct.duckdb_yyjson::yyjson_mut_doc", ptr %28, i32 0, i32 2
  %30 = getelementptr inbounds nuw %"struct.duckdb_yyjson::yyjson_str_pool", ptr %29, i32 0, i32 3
  store i64 268435456, ptr %30, align 8, !tbaa !78
  %31 = load ptr, ptr %4, align 8, !tbaa !71
  %32 = getelementptr inbounds nuw %"struct.duckdb_yyjson::yyjson_mut_doc", ptr %31, i32 0, i32 3
  %33 = getelementptr inbounds nuw %"struct.duckdb_yyjson::yyjson_val_pool", ptr %32, i32 0, i32 2
  store i64 384, ptr %33, align 8, !tbaa !75
  %34 = load ptr, ptr %4, align 8, !tbaa !71
  %35 = getelementptr inbounds nuw %"struct.duckdb_yyjson::yyjson_mut_doc", ptr %34, i32 0, i32 3
  %36 = getelementptr inbounds nuw %"struct.duckdb_yyjson::yyjson_val_pool", ptr %35, i32 0, i32 3
  store i64 402653184, ptr %36, align 8, !tbaa !79
  %37 = load ptr, ptr %4, align 8, !tbaa !71
  store ptr %37, ptr %2, align 8
  store i32 1, ptr %5, align 4
  br label %38

38:                                               ; preds = %20, %19
  call void @llvm.lifetime.end.p0(i64 8, ptr %4) #15
  %39 = load ptr, ptr %2, align 8
  ret ptr %39
}